target datalayout = "e-m:e-p270:32:32-p271:32:32-p272:64:64-i64:64-i128:128-f80:128-n8:16:32:64-S128"
target triple = "x86_64-pc-linux-gnu"

%struct._XSettingsList = type { ptr, ptr }
%struct._XSettingsSetting = type { ptr, i32, %union.anon.1, i64 }
%union.anon.1 = type { ptr }

; Function Attrs: nounwind uwtable
define hidden ptr @xsettings_list_lookup(ptr noundef %0, ptr noundef %1) #0 {
  %3 = alloca ptr, align 8
  %4 = alloca ptr, align 8
  %5 = alloca ptr, align 8
  %6 = alloca ptr, align 8
  %7 = alloca i32, align 4
  store ptr %0, ptr %4, align 8
  store ptr %1, ptr %5, align 8
  call void @llvm.lifetime.start.p0(i64 8, ptr %6) #6
  %8 = load ptr, ptr %4, align 8
  store ptr %8, ptr %6, align 8
  br label %9

9:                                                ; preds = %25, %2
  %10 = load ptr, ptr %6, align 8
  %11 = icmp ne ptr %10, null
  br i1 %11, label %12, label %29

12:                                               ; preds = %9
  %13 = load ptr, ptr %5, align 8
  %14 = load ptr, ptr %6, align 8
  %15 = getelementptr inbounds nuw %struct._XSettingsList, ptr %14, i32 0, i32 0
  %16 = load ptr, ptr %15, align 8
  %17 = getelementptr inbounds nuw %struct._XSettingsSetting, ptr %16, i32 0, i32 0
  %18 = load ptr, ptr %17, align 8
  %19 = call i32 @strcmp(ptr noundef %13, ptr noundef %18) #8
  %20 = icmp eq i32 %19, 0
  br i1 %20, label %21, label %25

21:                                               ; preds = %12
  %22 = load ptr, ptr %6, align 8
  %23 = getelementptr inbounds nuw %struct._XSettingsList, ptr %22, i32 0, i32 0
  %24 = load ptr, ptr %23, align 8
  store ptr %24, ptr %3, align 8
  store i32 1, ptr %7, align 4
  br label %30

25:                                               ; preds = %12
  %26 = load ptr, ptr %6, align 8
  %27 = getelementptr inbounds nuw %struct._XSettingsList, ptr %26, i32 0, i32 1
  %28 = load ptr, ptr %27, align 8
  store ptr %28, ptr %6, align 8
  br label %9, !llvm.loop !5

29:                                               ; preds = %9
  store ptr null, ptr %3, align 8
  store i32 1, ptr %7, align 4
  br label %30

30:                                               ; preds = %29, %21
  call void @llvm.lifetime.end.p0(i64 8, ptr %6) #6
  %31 = load ptr, ptr %3, align 8
  ret ptr %31
}