; Function Attrs: nofree norecurse nounwind memory(read, inaccessiblemem: none) uwtable
define hidden noundef ptr @xsettings_list_lookup(ptr noundef readonly captures(address_is_null) %0, ptr noundef readonly captures(none) %1) local_unnamed_addr #6 {
  %.not8 = icmp eq ptr %0, null
  br i1 %.not8, label %._crit_edge, label %.lr.ph

.lr.ph:                                           ; preds = %2, %7
  %.09 = phi ptr [ %9, %7 ], [ %0, %2 ]
  %3 = load ptr, ptr %.09, align 8
  %4 = load ptr, ptr %3, align 8
  %5 = tail call i32 @strcmp(ptr noundef nonnull dereferenceable(1) %1, ptr noundef nonnull dereferenceable(1) %4) #16
  %6 = icmp eq i32 %5, 0
  br i1 %6, label %._crit_edge, label %7

7:                                                ; preds = %.lr.ph
  %8 = getelementptr inbounds nuw i8, ptr %.09, i64 8
  %9 = load ptr, ptr %8, align 8
  %.not = icmp eq ptr %9, null
  br i1 %.not, label %._crit_edge, label %.lr.ph, !llvm.loop !5

._crit_edge:                                      ; preds = %.lr.ph, %7, %2
  %.07 = phi ptr [ null, %2 ], [ null, %7 ], [ %3, %.lr.ph ]
  ret ptr %.07
}